	.cpu cortex-m4
	.eabi_attribute 27, 1
	.eabi_attribute 28, 1
	.eabi_attribute 20, 1
	.eabi_attribute 21, 1
	.eabi_attribute 23, 3
	.eabi_attribute 24, 1
	.eabi_attribute 25, 1
	.eabi_attribute 26, 1
	.eabi_attribute 30, 2
	.eabi_attribute 34, 1
	.eabi_attribute 18, 4
	.file	"rand.c"
	.text
.Ltext0:
	.cfi_sections	.debug_frame
	.align	1
	.p2align 2,,3
	.global	genRIN
	.syntax unified
	.thumb
	.thumb_func
	.fpu fpv4-sp-d16
	.type	genRIN, %function
genRIN:
.LFB110:
	.file 1 "rand.c"
	.loc 1 5 0
	.cfi_startproc
	@ args = 0, pretend = 0, frame = 0
	@ frame_needed = 0, uses_anonymous_args = 0
	@ link register save eliminated.
	.loc 1 7 0
	ldr	r1, .L12
	.loc 1 9 0
	ldr	r3, .L12+4
	.loc 1 7 0
	ldr	r2, [r1, #52]
	orr	r2, r2, #64
	str	r2, [r1, #52]
	.loc 1 9 0
	ldr	r2, [r3]
	orr	r2, r2, #4
	str	r2, [r3]
.L2:
	.loc 1 13 0
	ldr	r2, [r3, #4]
	tst	r2, #64
	.loc 1 15 0
	ldr	r2, [r3, #4]
	.loc 1 13 0
	beq	.L3
.L11:
	.loc 1 15 0
	bic	r2, r2, #64
.L9:
	.loc 1 23 0
	str	r2, [r3, #4]
	.loc 1 24 0
	ldr	r2, [r3]
	bic	r2, r2, #4
	str	r2, [r3]
	.loc 1 25 0
	ldr	r2, [r3]
	orr	r2, r2, #4
	str	r2, [r3]
	.loc 1 13 0
	ldr	r2, [r3, #4]
	tst	r2, #64
	.loc 1 15 0
	ldr	r2, [r3, #4]
	.loc 1 13 0
	bne	.L11
.L3:
	.loc 1 21 0
	tst	r2, #32
	.loc 1 23 0
	ldr	r2, [r3, #4]
	.loc 1 21 0
	beq	.L5
	.loc 1 23 0
	bic	r2, r2, #32
	b	.L9
.L5:
	.loc 1 29 0
	lsls	r2, r2, #31
	bpl	.L2
	.loc 1 31 0
	ldr	r0, [r3, #8]
.LVL0:
	.loc 1 38 0
	ldr	r2, [r3]
	.loc 1 39 0
	ldr	r1, .L12
	.loc 1 38 0
	bic	r2, r2, #4
	str	r2, [r3]
	.loc 1 39 0
	ldr	r3, [r1, #52]
	bic	r3, r3, #64
	str	r3, [r1, #52]
	.loc 1 42 0
	bx	lr
.L13:
	.align	2
.L12:
	.word	1073887232
	.word	1342572544
	.cfi_endproc
.LFE110:
	.size	genRIN, .-genRIN
	.align	1
	.p2align 2,,3
	.global	genRBN
	.syntax unified
	.thumb
	.thumb_func
	.fpu fpv4-sp-d16
	.type	genRBN, %function
genRBN:
.LFB111:
	.loc 1 46 0
	.cfi_startproc
	@ args = 0, pretend = 0, frame = 0
	@ frame_needed = 0, uses_anonymous_args = 0
.LVL1:
	push	{r3, lr}
	.cfi_def_cfa_offset 8
	.cfi_offset 3, -8
	.cfi_offset 14, -4
	.loc 1 48 0
	bl	genRIN
.LVL2:
	.loc 1 49 0
	vldr.32	s15, .L16
	vmul.f32	s0, s0, s15
.LVL3:
	vcvt.u32.f32	s0, s0
	.loc 1 58 0
	vmov	r3, s0	@ int
	cmp	r0, r3
	ite	cs
	movcs	r0, #0
.LVL4:
	movcc	r0, #1
	pop	{r3, pc}
.L17:
	.align	2
.L16:
	.word	1333788672
	.cfi_endproc
.LFE111:
	.size	genRBN, .-genRBN
	.align	1
	.p2align 2,,3
	.global	genURFN
	.syntax unified
	.thumb
	.thumb_func
	.fpu fpv4-sp-d16
	.type	genURFN, %function
genURFN:
.LFB112:
	.loc 1 62 0
	.cfi_startproc
	@ args = 0, pretend = 0, frame = 8
	@ frame_needed = 0, uses_anonymous_args = 0
	push	{lr}
	.cfi_def_cfa_offset 4
	.cfi_offset 14, -4
	sub	sp, sp, #12
	.cfi_def_cfa_offset 16
	.loc 1 63 0
	bl	genRIN
.LVL5:
	vmov	s15, r0	@ int
	.loc 1 65 0
	vldr.32	s14, .L20
	.loc 1 63 0
	vcvt.f32.u32	s15, s15
.LVL6:
	.loc 1 65 0
	vmul.f32	s15, s15, s14
.LVL7:
	vstr.32	s15, [sp, #4]
	.loc 1 66 0
	vldr.32	s0, [sp, #4]
	.loc 1 67 0
	add	sp, sp, #12
	.cfi_def_cfa_offset 4
	@ sp needed
	ldr	pc, [sp], #4
.L21:
	.align	2
.L20:
	.word	796917760
	.cfi_endproc
.LFE112:
	.size	genURFN, .-genURFN
	.align	1
	.p2align 2,,3
	.global	genGRFN
	.syntax unified
	.thumb
	.thumb_func
	.fpu fpv4-sp-d16
	.type	genGRFN, %function
genGRFN:
.LFB113:
	.loc 1 71 0
	.cfi_startproc
	@ args = 0, pretend = 0, frame = 8
	@ frame_needed = 0, uses_anonymous_args = 0
.LVL8:
	push	{lr}
	.cfi_def_cfa_offset 4
	.cfi_offset 14, -4
	sub	sp, sp, #12
	.cfi_def_cfa_offset 16
.LBB6:
.LBB7:
	.loc 1 63 0
	bl	genRIN
.LVL9:
	vmov	s15, r0	@ int
	.loc 1 65 0
	vldr.32	s13, .L26
	.loc 1 63 0
	vcvt.f32.u32	s14, s15
.LVL10:
	.loc 1 65 0
	vmul.f32	s14, s14, s13
.LVL11:
	vstr.32	s14, [sp, #4]
	.loc 1 66 0
	vldr.32	s0, [sp, #4]
.LVL12:
.LBE7:
.LBE6:
.LBB8:
.LBB9:
	.loc 1 63 0
	bl	genRIN
.LVL13:
	vmov	s15, r0	@ int
	vcvt.f32.u32	s15, s15
.LVL14:
	.loc 1 65 0
	vmul.f32	s15, s15, s13
.LVL15:
	vstr.32	s15, [sp]
	.loc 1 66 0
	ldr	r3, [sp]	@ float
.LVL16:
.LBE9:
.LBE8:
	.loc 1 78 0
	bl	logf
.LVL17:
	vmov.f32	s15, #-2.0e+0
	vmul.f32	s0, s0, s15
	vcmp.f32	s0, #0
	vmrs	APSR_nzcv, FPSCR
	bmi	.L25
.LVL18:
	.loc 1 80 0
	add	sp, sp, #12
	.cfi_remember_state
	.cfi_def_cfa_offset 4
	@ sp needed
	ldr	pc, [sp], #4
.L25:
	.cfi_restore_state
	add	sp, sp, #12
	.cfi_def_cfa_offset 4
	@ sp needed
	ldr	lr, [sp], #4
	.cfi_restore 14
	.cfi_def_cfa_offset 0
	.loc 1 78 0
	b	sqrtf
.LVL19:
.L27:
	.align	2
.L26:
	.word	796917760
	.cfi_endproc
.LFE113:
	.size	genGRFN, .-genGRFN
.Letext0:
	.file 2 "/mnt/ssd/Dropbox/Fakultet/MSUT/students/gcc-arm-none-eabi/arm-none-eabi/include/machine/_default_types.h"
	.file 3 "/mnt/ssd/Dropbox/Fakultet/MSUT/students/gcc-arm-none-eabi/arm-none-eabi/include/sys/_stdint.h"
	.file 4 "../../../sdk/core_cm4.h"
	.file 5 "../../../sdk/system_stm32f4xx.h"
	.file 6 "../../../sdk/stm32f4xx.h"
	.file 7 "delay.h"
	.file 8 "/mnt/ssd/Dropbox/Fakultet/MSUT/students/gcc-arm-none-eabi/arm-none-eabi/include/sys/lock.h"
	.file 9 "/mnt/ssd/Dropbox/Fakultet/MSUT/students/gcc-arm-none-eabi/arm-none-eabi/include/sys/_types.h"
	.file 10 "/mnt/ssd/Dropbox/Fakultet/MSUT/students/gcc-arm-none-eabi/lib/gcc/arm-none-eabi/7.3.1/include/stddef.h"
	.file 11 "/mnt/ssd/Dropbox/Fakultet/MSUT/students/gcc-arm-none-eabi/arm-none-eabi/include/sys/reent.h"
	.file 12 "/mnt/ssd/Dropbox/Fakultet/MSUT/students/gcc-arm-none-eabi/arm-none-eabi/include/math.h"