	.syntax unified
	.cpu cortex-m4
	.eabi_attribute 27, 3
	.eabi_attribute 28, 1
	.fpu fpv4-sp-d16
	.eabi_attribute 20, 1
	.eabi_attribute 21, 1
	.eabi_attribute 23, 3
	.eabi_attribute 24, 1
	.eabi_attribute 25, 1
	.eabi_attribute 26, 1
	.eabi_attribute 30, 2
	.eabi_attribute 34, 1
	.eabi_attribute 18, 4
	.thumb
	.file	"main.c"
	.text
.Ltext0:
	.cfi_sections	.debug_frame
	.align	2
	.global	getData4DAC
	.thumb
	.thumb_func
	.type	getData4DAC, %function
getData4DAC:
.LFB111:
	.file 1 "main.c"
	.loc 1 181 0
	.cfi_startproc
	@ args = 0, pretend = 0, frame = 8
	@ frame_needed = 0, uses_anonymous_args = 0
.LVL0:
	push	{r4, r5, r6, lr}
	.cfi_def_cfa_offset 16
	.cfi_offset 4, -16
	.cfi_offset 5, -12
	.cfi_offset 6, -8
	.cfi_offset 14, -4
	fstmfdd	sp!, {d8, d9, d10, d11}
	.cfi_def_cfa_offset 48
	.cfi_offset 80, -48
	.cfi_offset 81, -44
	.cfi_offset 82, -40
	.cfi_offset 83, -36
	.cfi_offset 84, -32
	.cfi_offset 85, -28
	.cfi_offset 86, -24
	.cfi_offset 87, -20
	.loc 1 183 0
	flds	s16, .L43
	.loc 1 233 0
	flds	s18, .L43+4
	flds	s19, .L43+8
	flds	s17, .L43+12
	.loc 1 218 0
	flds	s20, .L43+16
	.loc 1 222 0
	flds	s21, .L43+20
	.loc 1 205 0
	flds	s22, .L43+24
	.loc 1 181 0
	sub	sp, sp, #8
	.cfi_def_cfa_offset 56
	mov	r4, r0
	.loc 1 181 0
	mov	r5, r1
	add	r6, r0, #2000
.LVL1:
.L19:
	.loc 1 187 0
	cbnz	r5, .L2
	.loc 1 189 0
	flds	s0, .L43+28
	fmuls	s0, s16, s0
	bl	sinf
.LVL2:
	flds	s15, .L43+32
	fconsts	s14, #96
	vfma.f32	s14, s0, s15
.LVL3:
	fadds	s16, s16, s17
.LVL4:
	fmuls	s15, s14, s19
.LVL5:
.L3:
	.loc 1 233 0
	fcmpes	s15, s18
	fmstat
	ble	.L33
.L42:
	.loc 1 234 0
	movw	r3, #4095
	strh	r3, [r4]	@ movhi
.L18:
	adds	r4, r4, #2
	.loc 1 185 0 discriminator 2
	cmp	r4, r6
	bne	.L19
	.loc 1 240 0
	add	sp, sp, #8
	.cfi_remember_state
	.cfi_def_cfa_offset 48
	@ sp needed
	fldmfdd	sp!, {d8-d11}
	.cfi_restore 86
	.cfi_restore 87
	.cfi_restore 84
	.cfi_restore 85
	.cfi_restore 82
	.cfi_restore 83
	.cfi_restore 80
	.cfi_restore 81
	.cfi_def_cfa_offset 16
	pop	{r4, r5, r6, pc}
.LVL6:
.L2:
	.cfi_restore_state
	.loc 1 191 0
	cmp	r5, #1
	beq	.L39
	.loc 1 195 0
	cmp	r5, #2
	beq	.L40
	.loc 1 216 0
	cmp	r5, #3
	beq	.L41
	fmuls	s15, s14, s19
.LVL7:
	fadds	s16, s16, s17
	.loc 1 233 0
	fcmpes	s15, s18
	fmstat
	bgt	.L42
.L33:
	ftouizs	s15, s15
	fsts	s15, [sp, #4]	@ int
	ldrh	r3, [sp, #4]
.LVL8:
.L20:
	.loc 1 236 0
	strh	r3, [r4]	@ movhi
	b	.L18
.LVL9:
.L39:
	.loc 1 193 0
	flds	s0, .L43+36
	fmuls	s0, s16, s0
	bl	sinf
.LVL10:
	fcpys	s23, s0
	flds	s0, .L43+40
	fmuls	s0, s16, s0
	bl	sinf
.LVL11:
	flds	s13, .L43+44
	flds	s15, .L43+32
	fconsts	s14, #96
	vfma.f32	s14, s23, s13
	fadds	s16, s16, s17
.LVL12:
	vfma.f32	s14, s0, s15
.LVL13:
	fmuls	s15, s14, s19
	b	.L3
.LVL14:
.L40:
	.loc 1 197 0
	fcmpes	s16, s20
	fmstat
	bpl	.L29
.LVL15:
	.loc 1 199 0
	fdivs	s15, s16, s20
	fconsts	s14, #112
.LVL16:
.L36:
	.loc 1 203 0
	fadds	s15, s15, s14
	fconsts	s14, #8
	fdivs	s14, s15, s14
	fadds	s16, s16, s17
.LVL17:
	fmuls	s15, s14, s19
	b	.L3
.LVL18:
.L41:
	.loc 1 218 0
	fcmpes	s16, s20
	fmstat
	bmi	.L13
	.loc 1 222 0
	fcmpes	s16, s21
	fmstat
	bpl	.L32
	fadds	s16, s16, s17
.LVL19:
	movs	r3, #0
	.loc 1 224 0
	flds	s14, .L43
.LVL20:
	b	.L20
.LVL21:
.L29:
	.loc 1 201 0
	fcmpes	s16, s21
	fmstat
	bpl	.L30
.LVL22:
	.loc 1 203 0
	fsubs	s15, s16, s20
	fconsts	s14, #128
	fmuls	s15, s15, s14
	flds	s14, .L43+48
	fdivs	s15, s15, s14
	fconsts	s14, #0
	b	.L36
.LVL23:
.L13:
	fadds	s16, s16, s17
.LVL24:
	.loc 1 218 0
	movw	r3, #2047
	.loc 1 220 0
	fconsts	s14, #96
.LVL25:
	b	.L20
.LVL26:
.L30:
	.loc 1 205 0
	fcmpes	s16, s22
	fmstat
	bpl	.L31
.LVL27:
	.loc 1 207 0
	fsubs	s15, s16, s21
	flds	s14, .L43+52
	fdivs	s15, s15, s14
	fconsts	s14, #8
	fdivs	s14, s15, s14
	fadds	s16, s16, s17
.LVL28:
	fmuls	s15, s14, s19
	b	.L3
.LVL29:
.L32:
	flds	s16, .L43+12
.LVL30:
	movw	r3, #2047
	.loc 1 229 0
	fconsts	s14, #96
.LVL31:
	b	.L20
.LVL32:
.L31:
	flds	s16, .L43+12
.LVL33:
	flds	s15, .L43+56
	flds	s14, .L43+60
.LVL34:
	b	.L3
.L44:
	.align	2
.L43:
	.word	0
	.word	1166012416
	.word	1166008320
	.word	953267991
	.word	981668463
	.word	994352038
	.word	998445679
	.word	1170495857
	.word	1050253722
	.word	1147903624
	.word	1187273073
	.word	1045220557
	.word	990057070
	.word	981668464
	.word	1152030038
	.word	1051372203
	.cfi_endproc
.LFE111:
	.size	getData4DAC, .-getData4DAC
	.section	.text.startup,"ax",%progbits
	.align	2
	.global	main
	.thumb
	.thumb_func
	.type	main, %function
main:
.LFB110:
	.loc 1 31 0
	.cfi_startproc
	@ args = 0, pretend = 0, frame = 6016
	@ frame_needed = 0, uses_anonymous_args = 0
	push	{r4, r5, r6, r7, r8, r9, r10, fp, lr}
	.cfi_def_cfa_offset 36
	.cfi_offset 4, -36
	.cfi_offset 5, -32
	.cfi_offset 6, -28
	.cfi_offset 7, -24
	.cfi_offset 8, -20
	.cfi_offset 9, -16
	.cfi_offset 10, -12
	.cfi_offset 11, -8
	.cfi_offset 14, -4
	.loc 1 45 0
	ldr	r2, .L76
	.loc 1 32 0
	ldr	r3, .L76+4
	.loc 1 46 0
	ldr	r0, .L76+8
	.loc 1 32 0
	ldrb	r3, [r3]	@ zero_extendqisi2
.LVL35:
	.loc 1 45 0
	ldr	r1, [r2, #48]
	.loc 1 51 0
	ldr	r3, .L76+12
.LBB5:
.LBB6:
	.file 2 "../../../../STM32F407/Libraries/CMSIS/Include/core_cm4.h"
	.loc 2 1075 0
	ldr	r6, .L76+16
.LBE6:
.LBE5:
	.loc 1 50 0
	ldr	r5, .L76+20
.LBB9:
	.loc 1 149 0
	ldr	r8, .L76+28
.LBE9:
	.loc 1 45 0
	orr	r1, r1, #1
	str	r1, [r2, #48]
	.loc 1 46 0
	ldr	r1, [r0]
	bic	r1, r1, #3
	str	r1, [r0]
	.loc 1 48 0
	ldr	r1, [r2, #68]
	.loc 1 50 0
	movs	r0, #0
	.loc 1 48 0
	orr	r1, r1, #16384
	.loc 1 51 0
	movs	r4, #1
.LBB10:
.LBB7:
	.loc 2 1075 0
	movs	r7, #64
.LBE7:
.LBE10:
	.loc 1 48 0
	str	r1, [r2, #68]
.LVL36:
.LBB11:
.LBB8:
	.loc 2 1075 0
	str	r7, [r6]
.LBE8:
.LBE11:
	.loc 1 50 0
	str	r0, [r5, #8]
	.loc 1 51 0
	str	r4, [r3]
	.loc 1 52 0
	ldr	r2, [r3, #4]
	.loc 1 31 0
	sub	sp, sp, #6016
	.cfi_def_cfa_offset 6052
	.loc 1 52 0
	bic	r2, r2, #1
	.loc 1 31 0
	sub	sp, sp, #4
	.cfi_def_cfa_offset 6056
	.loc 1 52 0
	str	r2, [r3, #4]
	.loc 1 53 0
	str	r4, [r3, #8]
	.loc 1 54 0
	str	r0, [r3, #12]
	.loc 1 57 0
	bl	initSYSTIM
.LVL37:
	.loc 1 59 0
	movs	r0, #45
	bl	initUSART2
.LVL38:
	.loc 1 62 0
	add	r10, sp, #2016
	.loc 1 61 0
	mov	r1, r4
	add	r0, sp, #16
	bl	getData4DAC
.LVL39:
	.loc 1 62 0
	mov	r0, r10
	add	r1, sp, #4016
	mov	r2, #1000
	bl	initDmaADC1
.LVL40:
	.loc 1 63 0
	add	r0, sp, #16
	mov	r1, #1000
	bl	initDmaDAC1
.LVL41:
	add	r6, sp, #4992
	addw	r7, sp, #3014
	add	r4, sp, #4
	adds	r6, r6, #22
.LVL42:
.L46:
.LBB12:
	.loc 1 67 0
	bl	getcharUSART2
.LVL43:
	.loc 1 68 0
	ldr	r3, .L76+24
	ldr	r3, [r3]
	lsls	r3, r3, #12
	bpl	.L47
	addw	r5, sp, #2014
	mov	fp, r5
.L48:
	.loc 1 73 0 discriminator 3
	ldrh	r9, [fp, #2]!
.LVL44:
	.loc 1 74 0 discriminator 3
	lsr	r0, r9, #8
	bl	putcharUSART2
.LVL45:
	.loc 1 75 0 discriminator 3
	uxtb	r0, r9
	bl	putcharUSART2
.LVL46:
	.loc 1 71 0 discriminator 3
	cmp	fp, r7
	bne	.L48
	movs	r2, #0
	mov	r3, r2
	.loc 1 84 0
	mov	r0, r2
.L51:
.LVL47:
	.loc 1 82 0
	cmp	r3, #1
	.loc 1 88 0
	itet	hi
	ldrhhi	r1, [r10, r2, lsl #1]
	.loc 1 84 0
	strhls	r0, [r4, r3, lsl #1]	@ movhi
	.loc 1 88 0
	strhhi	r1, [r4, r3, lsl #1]	@ movhi
	.loc 1 80 0
	add	r3, r3, #1
.LVL48:
	.loc 1 89 0
	it	hi
	addhi	r2, r2, #1
.LVL49:
	.loc 1 80 0
	cmp	r3, #5
	bne	.L51
	ldrh	r0, [r4]
	mov	fp, #0
	mov	r1, r0
.LVL50:
.L52:
	mov	r3, r4
	add	lr, sp, #12
	movs	r2, #0
.LVL51:
	.loc 1 97 0
	cmp	r3, lr
	.loc 1 99 0
	add	r2, r2, r1
.LVL52:
	.loc 1 97 0
	beq	.L74
.L53:
	ldrh	r1, [r3, #2]!
	cmp	r3, lr
	.loc 1 99 0
	add	r2, r2, r1
.LVL53:
	.loc 1 97 0
	bne	.L53
.L74:
	addw	r0, r0, #2046
	.loc 1 102 0
	umull	r3, r2, r8, r2
.LVL54:
	sub	r2, r0, r2, lsr #2
	uxth	r9, r2
.LVL55:
	.loc 1 107 0
	lsr	r0, r9, #8
	bl	putcharUSART2
.LVL56:
	.loc 1 108 0
	uxtb	r0, r9
	bl	putcharUSART2
.LVL57:
	.loc 1 110 0
	add	ip, fp, #1
	uxth	fp, ip
.LVL58:
	.loc 1 111 0
	cmp	fp, #5
	.loc 1 114 0
	ldrh	r0, [r5, #2]!
	it	eq
	moveq	fp, #0
.LVL59:
	.loc 1 94 0
	cmp	r7, r5
	.loc 1 114 0
	strh	r0, [r4, fp, lsl #1]	@ movhi
	.loc 1 94 0
	beq	.L46
	ldrh	r1, [r4]
	b	.L52
.LVL60:
.L47:
	addw	r5, sp, #4014
	.loc 1 68 0
	mov	fp, r5
.L57:
	.loc 1 121 0 discriminator 3
	ldrh	r9, [fp, #2]!
.LVL61:
	.loc 1 122 0 discriminator 3
	lsr	r0, r9, #8
	bl	putcharUSART2
.LVL62:
	.loc 1 123 0 discriminator 3
	uxtb	r0, r9
	bl	putcharUSART2
.LVL63:
	.loc 1 119 0 discriminator 3
	cmp	fp, r6
	bne	.L57
	movs	r2, #0
	mov	r3, r2
	.loc 1 132 0
	mov	r0, r2
.L60:
.LVL64:
	.loc 1 130 0
	cmp	r3, #1
	bls	.L75
	.loc 1 136 0
	add	r1, sp, #4016
	ldrh	r1, [r1, r2, lsl #1]
	strh	r1, [r4, r3, lsl #1]	@ movhi
	.loc 1 137 0
	adds	r2, r2, #1
.LVL65:
.L59:
	.loc 1 128 0 discriminator 2
	adds	r3, r3, #1
.LVL66:
	cmp	r3, #5
	bne	.L60
	mov	fp, #0
.LVL67:
.L61:
	mov	r3, r4
	add	lr, sp, #14
	movs	r2, #0
.LVL68:
.L62:
	.loc 1 147 0 discriminator 3
	ldrh	r0, [r3], #2
	.loc 1 145 0 discriminator 3
	cmp	r3, lr
	.loc 1 147 0 discriminator 3
	add	r2, r2, r0
.LVL69:
	.loc 1 145 0 discriminator 3
	bne	.L62
	ldrh	r3, [r4, fp, lsl #1]
	.loc 1 149 0
	umull	r1, r2, r8, r2
.LVL70:
	addw	r3, r3, #2046
	sub	r2, r3, r2, lsr #2
	uxth	r9, r2
.LVL71:
	.loc 1 152 0
	lsr	r0, r9, #8
	bl	putcharUSART2
.LVL72:
	.loc 1 153 0
	uxtb	r0, r9
	bl	putcharUSART2
.LVL73:
	.loc 1 155 0
	add	r1, fp, #1
	uxth	fp, r1
.LVL74:
	.loc 1 156 0
	cmp	fp, #5
	.loc 1 159 0
	ldrh	r2, [r5, #2]!
	it	eq
	moveq	fp, #0
.LVL75:
	.loc 1 142 0
	cmp	r6, r5
	.loc 1 159 0
	strh	r2, [r4, fp, lsl #1]	@ movhi
	.loc 1 142 0
	bne	.L61
	b	.L46
.LVL76:
.L75:
	.loc 1 132 0
	strh	r0, [r4, r3, lsl #1]	@ movhi
	b	.L59
.L77:
	.align	2
.L76:
	.word	1073887232
	.word	.LANCHOR0
	.word	1073872896
	.word	1073822720
	.word	-536813312
	.word	1073821696
	.word	1073898512
	.word	-858993459
.LBE12:
	.cfi_endproc
.LFE110:
	.size	main, .-main
	.text
	.align	2
	.global	serviceIRQA
	.thumb
	.thumb_func
	.type	serviceIRQA, %function
serviceIRQA:
.LFB112:
	.loc 1 243 0
	.cfi_startproc
	@ args = 0, pretend = 0, frame = 0
	@ frame_needed = 0, uses_anonymous_args = 0
	push	{r4, lr}
	.cfi_def_cfa_offset 8
	.cfi_offset 4, -8
	.cfi_offset 14, -4
	.loc 1 244 0
	ldr	r4, .L88
	ldrb	r3, [r4, #1]	@ zero_extendqisi2
	uxtb	r3, r3
	cmp	r3, #2
	beq	.L80
	cmp	r3, #3
	beq	.L81
	cmp	r3, #1
	beq	.L87
.L78:
	pop	{r4, pc}
.L87:
	.loc 1 252 0
	ldrb	r3, [r4]	@ zero_extendqisi2
	adds	r3, r3, #1
	uxtb	r3, r3
	strb	r3, [r4]
	.loc 1 253 0
	ldrb	r3, [r4]	@ zero_extendqisi2
	cmp	r3, #3
	.loc 1 254 0
	itt	hi
	movhi	r3, #0
	strbhi	r3, [r4]
	.loc 1 256 0
	movs	r3, #2
	strb	r3, [r4, #1]
	.loc 1 257 0
	pop	{r4, pc}
.L81:
	.loc 1 270 0
	ldr	r0, [r4, #4]
	movs	r1, #50
	bl	chk4TimeoutSYSTIM
.LVL77:
	cmp	r0, #0
	bne	.L78
	.loc 1 272 0
	strb	r0, [r4, #1]
	pop	{r4, pc}
.L80:
	.loc 1 261 0
	ldr	r3, .L88+4
	ldr	r3, [r3, #16]
	lsls	r3, r3, #31
	bmi	.L78
	.loc 1 263 0
	movs	r3, #3
	strb	r3, [r4, #1]
	.loc 1 264 0
	bl	getSYSTIM
.LVL78:
	str	r0, [r4, #4]
	pop	{r4, pc}
.L89:
	.align	2
.L88:
	.word	.LANCHOR0
	.word	1073872896
	.cfi_endproc
.LFE112:
	.size	serviceIRQA, .-serviceIRQA
	.align	2
	.global	EXTI0_IRQHandler
	.thumb
	.thumb_func
	.type	EXTI0_IRQHandler, %function
EXTI0_IRQHandler:
.LFB113:
	.loc 1 283 0
	.cfi_startproc
	@ args = 0, pretend = 0, frame = 0
	@ frame_needed = 0, uses_anonymous_args = 0
	@ link register save eliminated.
	.loc 1 284 0
	ldr	r3, .L97
	ldr	r3, [r3, #20]
	lsls	r3, r3, #31
	bpl	.L90
	.loc 1 286 0
	ldr	r3, .L97+4
	ldrb	r2, [r3, #1]	@ zero_extendqisi2
	cbz	r2, .L96
.L92:
	.loc 1 290 0
	ldr	r3, .L97
	movs	r2, #1
	str	r2, [r3, #20]
.L90:
	bx	lr
.L96:
	.loc 1 288 0
	movs	r2, #1
	strb	r2, [r3, #1]
	b	.L92
.L98:
	.align	2
.L97:
	.word	1073822720
	.word	.LANCHOR0
	.cfi_endproc
.LFE113:
	.size	EXTI0_IRQHandler, .-EXTI0_IRQHandler
	.global	g_pbtn_cnt
	.global	g_irq_timer
	.global	g_gpioa_irq_state
	.bss
	.align	2
	.set	.LANCHOR0,. + 0
	.type	g_pbtn_cnt, %object
	.size	g_pbtn_cnt, 1
g_pbtn_cnt:
	.space	1
	.type	g_gpioa_irq_state, %object
	.size	g_gpioa_irq_state, 1
g_gpioa_irq_state:
	.space	1
	.space	2
	.type	g_irq_timer, %object
	.size	g_irq_timer, 4
g_irq_timer:
	.space	4
	.text
.Letext0:
	.file 3 "../../../../STM32F407/Libraries/CMSIS/ST/STM32F4xx/Include/stm32f4xx.h"
	.file 4 "/mnt/fc1baefc-d6c5-4544-a806-4037b5232b05/Dropbox/Fakultet/2019/MSUT/STM32F407/gcc-arm-none-eabi/arm-none-eabi/include/machine/_default_types.h"
	.file 5 "/mnt/fc1baefc-d6c5-4544-a806-4037b5232b05/Dropbox/Fakultet/2019/MSUT/STM32F407/gcc-arm-none-eabi/arm-none-eabi/include/stdint.h"
	.file 6 "usart.h"
	.file 7 "adc.h"
	.file 8 "dac.h"
	.file 9 "/mnt/fc1baefc-d6c5-4544-a806-4037b5232b05/Dropbox/Fakultet/2019/MSUT/STM32F407/gcc-arm-none-eabi/arm-none-eabi/include/math.h"
	.file 10 "delay.h"