	.cpu cortex-m4
	.eabi_attribute 27, 1
	.eabi_attribute 28, 1
	.eabi_attribute 20, 1
	.eabi_attribute 21, 1
	.eabi_attribute 23, 3
	.eabi_attribute 24, 1
	.eabi_attribute 25, 1
	.eabi_attribute 26, 1
	.eabi_attribute 30, 2
	.eabi_attribute 34, 1
	.eabi_attribute 18, 4
	.file	"main.c"
	.text
.Ltext0:
	.cfi_sections	.debug_frame
	.section	.text.startup,"ax",%progbits
	.align	1
	.p2align 2,,3
	.global	main
	.syntax unified
	.thumb
	.thumb_func
	.fpu fpv4-sp-d16
	.type	main, %function
main:
.LFB113:
	.file 1 "main.c"
	.loc 1 7 0
	.cfi_startproc
	@ args = 0, pretend = 0, frame = 8
	@ frame_needed = 0, uses_anonymous_args = 0
.LVL0:
	push	{r4, r5, r6, r7, lr}
	.cfi_def_cfa_offset 20
	.cfi_offset 4, -20
	.cfi_offset 5, -16
	.cfi_offset 6, -12
	.cfi_offset 7, -8
	.cfi_offset 14, -4
	.loc 1 9 0
	mov	r0, #364
	.loc 1 7 0
	sub	sp, sp, #12
	.cfi_def_cfa_offset 32
	.loc 1 9 0
	bl	initUSART2
.LVL1:
	.loc 1 13 0
	ldr	r7, .L11
	.loc 1 14 0
	ldr	r6, .L11+4
	.loc 1 15 0
	ldr	r5, .L11+8
	.loc 1 8 0
	movs	r4, #0
.LVL2:
.L4:
	.loc 1 13 0 discriminator 1
	mov	r1, r4
	mov	r0, r7
	bl	printUSART2
.LVL3:
	.loc 1 14 0 discriminator 1
	mov	r1, r4
	mov	r0, r6
	bl	printUSART2
.LVL4:
	.loc 1 15 0 discriminator 1
	mov	r1, r4
	mov	r0, r5
	bl	printUSART2
.LVL5:
	.loc 1 16 0 discriminator 1
	mov	r3, r4
	mov	r2, r4
	mov	r1, r4
	ldr	r0, .L11+12
	bl	printUSART2
.LVL6:
.LBB4:
.LBB5:
	.loc 1 25 0 discriminator 1
	ldr	r3, .L11+16
	str	r3, [sp, #4]
	.loc 1 27 0 discriminator 1
	ldr	r3, [sp, #4]
	cbz	r3, .L2
.L3:
	.loc 1 29 0
	ldr	r3, [sp, #4]
	subs	r3, r3, #1
	str	r3, [sp, #4]
	.loc 1 27 0
	ldr	r3, [sp, #4]
	cmp	r3, #0
	bne	.L3
.L2:
.LVL7:
.LBE5:
.LBE4:
	.loc 1 19 0
	adds	r4, r4, #1
.LVL8:
	.loc 1 13 0
	b	.L4
.L12:
	.align	2
.L11:
	.word	.LC0
	.word	.LC1
	.word	.LC2
	.word	.LC3
	.word	10500000
	.cfi_endproc
.LFE113:
	.size	main, .-main
	.text
	.align	1
	.p2align 2,,3
	.global	delay_soft_ms
	.syntax unified
	.thumb
	.thumb_func
	.fpu fpv4-sp-d16
	.type	delay_soft_ms, %function
delay_soft_ms:
.LFB114:
	.loc 1 24 0
	.cfi_startproc
	@ args = 0, pretend = 0, frame = 8
	@ frame_needed = 0, uses_anonymous_args = 0
	@ link register save eliminated.
.LVL9:
	sub	sp, sp, #8
	.cfi_def_cfa_offset 8
	.loc 1 25 0
	movw	r3, #10500
	mul	r0, r3, r0
.LVL10:
	str	r0, [sp, #4]
	.loc 1 27 0
	ldr	r3, [sp, #4]
	cbz	r3, .L13
.L15:
	.loc 1 29 0
	ldr	r3, [sp, #4]
	subs	r3, r3, #1
	str	r3, [sp, #4]
	.loc 1 27 0
	ldr	r3, [sp, #4]
	cmp	r3, #0
	bne	.L15
.L13:
	.loc 1 33 0
	add	sp, sp, #8
	.cfi_def_cfa_offset 0
	@ sp needed
	bx	lr
	.cfi_endproc
.LFE114:
	.size	delay_soft_ms, .-delay_soft_ms
	.section	.rodata.str1.4,"aMS",%progbits,1
	.align	2
.LC0:
	.ascii	"-> SYS: dec [%d]\012\000"
	.space	2
.LC1:
	.ascii	"-> SYS: hex [0x%x]\012\000"
.LC2:
	.ascii	"-> SYS: bin [%b]\012\000"
	.space	2
.LC3:
	.ascii	"[uint32_t] hex: \033[34m%x\033[39m \011bin: \033[33"
	.ascii	"m%b\033[39m \011dec: \033[35m%d\033[39m\012\012\000"
	.text
.Letext0:
	.file 2 "/mnt/fc1baefc-d6c5-4544-a806-4037b5232b05/Dropbox/Fakultet/MSUT/students/gcc-arm-none-eabi/arm-none-eabi/include/machine/_default_types.h"
	.file 3 "/mnt/fc1baefc-d6c5-4544-a806-4037b5232b05/Dropbox/Fakultet/MSUT/students/gcc-arm-none-eabi/arm-none-eabi/include/sys/_stdint.h"
	.file 4 "../../../sdk/core_cm4.h"
	.file 5 "../../../sdk/system_stm32f4xx.h"
	.file 6 "/mnt/fc1baefc-d6c5-4544-a806-4037b5232b05/Dropbox/Fakultet/MSUT/students/gcc-arm-none-eabi/arm-none-eabi/include/sys/lock.h"
	.file 7 "/mnt/fc1baefc-d6c5-4544-a806-4037b5232b05/Dropbox/Fakultet/MSUT/students/gcc-arm-none-eabi/arm-none-eabi/include/sys/_types.h"
	.file 8 "/mnt/fc1baefc-d6c5-4544-a806-4037b5232b05/Dropbox/Fakultet/MSUT/students/gcc-arm-none-eabi/lib/gcc/arm-none-eabi/7.3.1/include/stddef.h"
	.file 9 "/mnt/fc1baefc-d6c5-4544-a806-4037b5232b05/Dropbox/Fakultet/MSUT/students/gcc-arm-none-eabi/arm-none-eabi/include/sys/reent.h"
	.file 10 "usart.h"